target datalayout = "e-m:e-p270:32:32-p271:32:32-p272:64:64-i64:64-i128:128-f80:128-n8:16:32:64-S128"
target triple = "x86_64-pc-linux-gnu"

%struct.asdl_seq = type { i64, ptr }

@PyExc_ValueError = external global ptr, align 8
@.str.37 = private unnamed_addr constant [5 x i8] c"body\00", align 1
@.str.47 = private unnamed_addr constant [15 x i8] c"empty %s on %s\00", align 1

; Function Attrs: nounwind uwtable
define internal i32 @_validate_nonempty_seq(ptr noundef %0, ptr noundef %1, ptr noundef %2) #0 {
  %4 = alloca i32, align 4
  %5 = alloca ptr, align 8
  %6 = alloca ptr, align 8
  %7 = alloca ptr, align 8
  store ptr %0, ptr %5, align 8, !tbaa !33
  store ptr %1, ptr %6, align 8, !tbaa !82
  store ptr %2, ptr %7, align 8, !tbaa !82
  %8 = load ptr, ptr %5, align 8, !tbaa !33
  %9 = icmp eq ptr %8, null
  br i1 %9, label %10, label %11

10:                                               ; preds = %3
  br label %15

11:                                               ; preds = %3
  %12 = load ptr, ptr %5, align 8, !tbaa !33
  %13 = getelementptr inbounds nuw %struct.asdl_seq, ptr %12, i32 0, i32 0
  %14 = load i64, ptr %13, align 8, !tbaa !105
  br label %15

15:                                               ; preds = %11, %10
  %16 = phi i64 [ 0, %10 ], [ %14, %11 ]
  %17 = icmp ne i64 %16, 0
  br i1 %17, label %18, label %19

18:                                               ; preds = %15
  store i32 1, ptr %4, align 4
  br label %24

19:                                               ; preds = %15
  %20 = load ptr, ptr @PyExc_ValueError, align 8, !tbaa !30
  %21 = load ptr, ptr %6, align 8, !tbaa !82
  %22 = load ptr, ptr %7, align 8, !tbaa !82
  %23 = call ptr (ptr, ptr, ...) @PyErr_Format(ptr noundef %20, ptr noundef @.str.47, ptr noundef %21, ptr noundef %22)
  store i32 0, ptr %4, align 4
  br label %24

24:                                               ; preds = %19, %18
  %25 = load i32, ptr %4, align 4
  ret i32 %25
}

; Function Attrs: nounwind uwtable
define internal i32 @validate_body(ptr noundef %0, ptr noundef %1, ptr noundef %2) #0 {
  %4 = alloca ptr, align 8
  %5 = alloca ptr, align 8
  %6 = alloca ptr, align 8
  store ptr %0, ptr %4, align 8, !tbaa !31
  store ptr %1, ptr %5, align 8, !tbaa !33
  store ptr %2, ptr %6, align 8, !tbaa !82
  %7 = load ptr, ptr %5, align 8, !tbaa !33
  %8 = load ptr, ptr %6, align 8, !tbaa !82
  %9 = call i32 @_validate_nonempty_seq(ptr noundef %7, ptr noundef @.str.37, ptr noundef %8)
  %10 = icmp ne i32 %9, 0
  br i1 %10, label %11, label %16

11:                                               ; preds = %3
  %12 = load ptr, ptr %4, align 8, !tbaa !31
  %13 = load ptr, ptr %5, align 8, !tbaa !33
  %14 = call i32 @validate_stmts(ptr noundef %12, ptr noundef %13)
  %15 = icmp ne i32 %14, 0
  br label %16

16:                                               ; preds = %11, %3
  %17 = phi i1 [ false, %3 ], [ %15, %11 ]
  %18 = zext i1 %17 to i32
  ret i32 %18
}