; Function Attrs: nounwind uwtable
define internal fastcc range(i32 0, 2) i32 @validate_body(ptr noundef nonnull captures(none) %0, ptr noundef %1, ptr noundef %2) unnamed_addr #0 {
  %4 = icmp eq ptr %1, null
  br i1 %4, label %_validate_nonempty_seq.exit.thread, label %5

5:                                                ; preds = %3
  %6 = load i64, ptr %1, align 8, !tbaa !42
  %7 = icmp eq i64 %6, 0
  br i1 %7, label %_validate_nonempty_seq.exit.thread, label %_validate_nonempty_seq.exit

_validate_nonempty_seq.exit.thread:               ; preds = %3, %5
  %8 = load ptr, ptr @PyExc_ValueError, align 8, !tbaa !33
  %9 = tail call ptr (ptr, ptr, ...) @PyErr_Format(ptr noundef %8, ptr noundef nonnull @.str.47, ptr noundef nonnull @.str.37, ptr noundef %2) #5
  br label %11

_validate_nonempty_seq.exit:                      ; preds = %5
  %10 = tail call fastcc i32 @validate_stmts(ptr noundef %0, ptr noundef nonnull %1)
  br label %11

11:                                               ; preds = %_validate_nonempty_seq.exit.thread, %_validate_nonempty_seq.exit
  %12 = phi i32 [ %10, %_validate_nonempty_seq.exit ], [ 0, %_validate_nonempty_seq.exit.thread ]
  ret i32 %12
}